; Function Attrs: nounwind uwtable
define internal noundef ptr @monitoring_clear_tool_id(ptr readnone captures(none) %0, ptr noundef %1) #2 {
  %3 = tail call i32 @PyLong_AsInt(ptr noundef %1) #11
  %4 = icmp eq i32 %3, -1
  br i1 %4, label %20, label %.split

.split:                                           ; preds = %2
  %or.cond.i.i = icmp ugt i32 %3, 5
  br i1 %or.cond.i.i, label %check_valid_tool.exit.i, label %7

check_valid_tool.exit.i:                          ; preds = %.split
  %5 = load ptr, ptr @PyExc_ValueError, align 8, !tbaa !46
  %6 = tail call ptr (ptr, ptr, ...) @PyErr_Format(ptr noundef %5, ptr noundef nonnull @.str.27, i32 noundef %3) #11
  br label %monitoring_clear_tool_id_impl.exit

7:                                                ; preds = %.split
  %8 = tail call align 8 ptr @llvm.threadlocal.address.p0(ptr align 8 @_Py_tss_tstate)
  %9 = load ptr, ptr %8, align 8, !tbaa !76
  %10 = getelementptr inbounds nuw i8, ptr %9, i64 16
  %11 = load ptr, ptr %10, align 8, !tbaa !47
  %12 = getelementptr inbounds nuw i8, ptr %11, i64 224264
  %13 = zext nneg i32 %3 to i64
  %14 = getelementptr [8 x ptr], ptr %12, i64 0, i64 %13
  %15 = load ptr, ptr %14, align 8, !tbaa !46
  %.not4.i = icmp eq ptr %15, null
  br i1 %.not4.i, label %19, label %16

16:                                               ; preds = %7
  %17 = tail call i32 @_PyMonitoring_ClearToolId(i32 noundef %3)
  %18 = icmp slt i32 %17, 0
  br i1 %18, label %monitoring_clear_tool_id_impl.exit, label %19

19:                                               ; preds = %16, %7
  br label %monitoring_clear_tool_id_impl.exit

20:                                               ; preds = %2
  %21 = tail call ptr @PyErr_Occurred() #11
  %.not = icmp eq ptr %21, null
  br i1 %.not, label %.split4, label %monitoring_clear_tool_id_impl.exit

.split4:                                          ; preds = %20
  %22 = load ptr, ptr @PyExc_ValueError, align 8, !tbaa !46
  %23 = tail call ptr (ptr, ptr, ...) @PyErr_Format(ptr noundef %22, ptr noundef nonnull @.str.27, i32 noundef -1) #11
  br label %monitoring_clear_tool_id_impl.exit

monitoring_clear_tool_id_impl.exit:               ; preds = %19, %16, %check_valid_tool.exit.i, %.split4, %20
  %.0 = phi ptr [ null, %20 ], [ null, %.split4 ], [ null, %check_valid_tool.exit.i ], [ @_Py_NoneStruct, %19 ], [ null, %16 ]
  ret ptr %.0
}